; ModuleID = '16/148.c'
source_filename = "16/148.c"
target datalayout = "e-m:e-p270:32:32-p271:32:32-p272:64:64-i64:64-f80:128-n8:16:32:64-S128"
target triple = "x86_64-pc-linux-gnu"

@.str = private unnamed_addr constant [3 x i8] c"%d\00", align 1
@.str.1 = private unnamed_addr constant [4 x i8] c"0%d\00", align 1
@.str.2 = private unnamed_addr constant [5 x i8] c"00%d\00", align 1
@.str.3 = private unnamed_addr constant [6 x i8] c"000%d\00", align 1

; Function Attrs: noinline nounwind uwtable
define dso_local i32 @main() #0 {
  %1 = alloca i32, align 4
  %2 = alloca i32, align 4
  %3 = alloca i32, align 4
  %4 = alloca i32, align 4
  %5 = alloca i32, align 4
  %6 = alloca i32, align 4
  %7 = alloca i32, align 4
  store i32 0, i32* %1, align 4
  %8 = call i32 (i8*, ...) @__isoc99_scanf(i8* getelementptr inbounds ([3 x i8], [3 x i8]* @.str, i64 0, i64 0), i32* %6)
  %9 = load i32, i32* %6, align 4
  %10 = sdiv i32 %9, 1000
  store i32 %10, i32* %2, align 4
  %11 = load i32, i32* %6, align 4
  %12 = load i32, i32* %2, align 4
  %13 = mul nsw i32 1000, %12
  %14 = sub nsw i32 %11, %13
  %15 = sdiv i32 %14, 100
  store i32 %15, i32* %3, align 4
  %16 = load i32, i32* %6, align 4
  %17 = load i32, i32* %2, align 4
  %18 = mul nsw i32 1000, %17
  %19 = sub nsw i32 %16, %18
  %20 = load i32, i32* %3, align 4
  %21 = mul nsw i32 100, %20
  %22 = sub nsw i32 %19, %21
  %23 = sdiv i32 %22, 10
  store i32 %23, i32* %4, align 4
  %24 = load i32, i32* %6, align 4
  %25 = load i32, i32* %2, align 4
  %26 = mul nsw i32 1000, %25
  %27 = sub nsw i32 %24, %26
  %28 = load i32, i32* %3, align 4
  %29 = mul nsw i32 100, %28
  %30 = sub nsw i32 %27, %29
  %31 = load i32, i32* %4, align 4
  %32 = mul nsw i32 10, %31
  %33 = sub nsw i32 %30, %32
  store i32 %33, i32* %5, align 4
  %34 = load i32, i32* %2, align 4
  %35 = icmp eq i32 %34, 0
  br i1 %35, label %36, label %57

36:                                               ; preds = %0
  %37 = load i32, i32* %5, align 4
  %38 = mul nsw i32 %37, 100
  %39 = load i32, i32* %4, align 4
  %40 = mul nsw i32 %39, 10
  %41 = add nsw i32 %38, %40
  %42 = load i32, i32* %3, align 4
  %43 = add nsw i32 %41, %42
  store i32 %43, i32* %7, align 4
  %44 = load i32, i32* %3, align 4
  %45 = icmp eq i32 %44, 0
  br i1 %45, label %46, label %56

46:                                               ; preds = %36
  %47 = load i32, i32* %5, align 4
  %48 = mul nsw i32 %47, 10
  %49 = load i32, i32* %4, align 4
  %50 = add nsw i32 %48, %49
  store i32 %50, i32* %7, align 4
  %51 = load i32, i32* %4, align 4
  %52 = icmp eq i32 %51, 0
  br i1 %52, label %53, label %55

53:                                               ; preds = %46
  %54 = load i32, i32* %5, align 4
  store i32 %54, i32* %7, align 4
  br label %55

55:                                               ; preds = %53, %46
  br label %56

56:                                               ; preds = %55, %36
  br label %68

57:                                               ; preds = %0
  %58 = load i32, i32* %5, align 4
  %59 = mul nsw i32 %58, 1000
  %60 = load i32, i32* %4, align 4
  %61 = mul nsw i32 %60, 100
  %62 = add nsw i32 %59, %61
  %63 = load i32, i32* %3, align 4
  %64 = mul nsw i32 %63, 10
  %65 = add nsw i32 %62, %64
  %66 = load i32, i32* %2, align 4
  %67 = add nsw i32 %65, %66
  store i32 %67, i32* %7, align 4
  br label %68

68:                                               ; preds = %57, %56
  %69 = load i32, i32* %5, align 4
  %70 = icmp ne i32 %69, 0
  br i1 %70, label %71, label %74

71:                                               ; preds = %68
  %72 = load i32, i32* %7, align 4
  %73 = call i32 (i8*, ...) @printf(i8* getelementptr inbounds ([3 x i8], [3 x i8]* @.str, i64 0, i64 0), i32 %72)
  br label %74

74:                                               ; preds = %71, %68
  %75 = load i32, i32* %5, align 4
  %76 = icmp eq i32 %75, 0
  br i1 %76, label %77, label %83

77:                                               ; preds = %74
  %78 = load i32, i32* %4, align 4
  %79 = icmp ne i32 %78, 0
  br i1 %79, label %80, label %83

80:                                               ; preds = %77
  %81 = load i32, i32* %7, align 4
  %82 = call i32 (i8*, ...) @printf(i8* getelementptr inbounds ([4 x i8], [4 x i8]* @.str.1, i64 0, i64 0), i32 %81)
  br label %83

83:                                               ; preds = %80, %77, %74
  %84 = load i32, i32* %5, align 4
  %85 = icmp eq i32 %84, 0
  br i1 %85, label %86, label %95

86:                                               ; preds = %83
  %87 = load i32, i32* %4, align 4
  %88 = icmp eq i32 %87, 0
  br i1 %88, label %89, label %95

89:                                               ; preds = %86
  %90 = load i32, i32* %3, align 4
  %91 = icmp ne i32 %90, 0
  br i1 %91, label %92, label %95

92:                                               ; preds = %89
  %93 = load i32, i32* %7, align 4
  %94 = call i32 (i8*, ...) @printf(i8* getelementptr inbounds ([5 x i8], [5 x i8]* @.str.2, i64 0, i64 0), i32 %93)
  br label %95

95:                                               ; preds = %92, %89, %86, %83
  %96 = load i32, i32* %5, align 4
  %97 = icmp eq i32 %96, 0
  br i1 %97, label %98, label %107

98:                                               ; preds = %95
  %99 = load i32, i32* %4, align 4
  %100 = icmp eq i32 %99, 0
  br i1 %100, label %101, label %107

101:                                              ; preds = %98
  %102 = load i32, i32* %3, align 4
  %103 = icmp eq i32 %102, 0
  br i1 %103, label %104, label %107

104:                                              ; preds = %101
  %105 = load i32, i32* %7, align 4
  %106 = call i32 (i8*, ...) @printf(i8* getelementptr inbounds ([6 x i8], [6 x i8]* @.str.3, i64 0, i64 0), i32 %105)
  br label %107

107:                                              ; preds = %104, %101, %98, %95
  ret i32 0
}

declare dso_local i32 @__isoc99_scanf(i8*, ...) #1

declare dso_local i32 @printf(i8*, ...) #1


!llvm.module.flags = !{!0}
!llvm.ident = !{!1}

!0 = !{i32 1, !"wchar_size", i32 4}
!1 = !{!"clang version 10.0.0-4ubuntu1 "}
